target datalayout = "e-m:e-p270:32:32-p271:32:32-p272:64:64-i64:64-i128:128-f80:128-n8:16:32:64-S128"
target triple = "x86_64-pc-linux-gnu"

%"class.llvm::SmallVectorBase.4" = type { ptr, i32, i32 }
%"class.llvm::SmallVector.124" = type { %"class.llvm::SmallVectorImpl.125", %"struct.llvm::SmallVectorStorage.128" }
%"class.llvm::SmallVectorImpl.125" = type { %"class.llvm::SmallVectorTemplateBase.126" }
%"class.llvm::SmallVectorTemplateBase.126" = type { %"class.llvm::SmallVectorTemplateCommon.127" }
%"class.llvm::SmallVectorTemplateCommon.127" = type { %"class.llvm::SmallVectorBase.4" }
%"struct.llvm::SmallVectorStorage.128" = type { [24 x i8] }
%"class.clang::driver::Action" = type { ptr, i32, i32, %"class.llvm::SmallVector.124", i8, i32, i32, ptr, ptr }

; Function Attrs: mustprogress nounwind uwtable
define linkonce_odr hidden noundef i32 @_ZNK5clang6driver6Action7getKindEv(ptr noundef nonnull align 8 dereferenceable(88) %0) #0 comdat align 2 {
  %2 = alloca ptr, align 8
  store ptr %0, ptr %2, align 8
  %3 = load ptr, ptr %2, align 8
  %4 = getelementptr inbounds nuw %"class.clang::driver::Action", ptr %3, i32 0, i32 1
  %5 = load i32, ptr %4, align 8
  ret i32 %5
}

; Function Attrs: mustprogress nounwind uwtable
define linkonce_odr hidden noundef zeroext i1 @_ZN5clang6driver16BackendJobAction7classofEPKNS0_6ActionE(ptr noundef %0) #0 comdat align 2 {
  %2 = alloca ptr, align 8
  store ptr %0, ptr %2, align 8
  %3 = load ptr, ptr %2, align 8
  %4 = call noundef i32 @_ZNK5clang6driver6Action7getKindEv(ptr noundef nonnull align 8 dereferenceable(88) %3)
  %5 = icmp eq i32 %4, 9
  ret i1 %5
}

; Function Attrs: mustprogress nounwind uwtable
define linkonce_odr hidden noundef zeroext i1 @_ZN5clang6driver16CompileJobAction7classofEPKNS0_6ActionE(ptr noundef %0) #0 comdat align 2 {
  %2 = alloca ptr, align 8
  store ptr %0, ptr %2, align 8
  %3 = load ptr, ptr %2, align 8
  %4 = call noundef i32 @_ZNK5clang6driver6Action7getKindEv(ptr noundef nonnull align 8 dereferenceable(88) %3)
  %5 = icmp eq i32 %4, 8
  ret i1 %5
}

; Function Attrs: mustprogress nounwind uwtable
define linkonce_odr hidden noundef zeroext i1 @_ZN5clang6driver19PreprocessJobAction7classofEPKNS0_6ActionE(ptr noundef %0) #0 comdat align 2 {
  %2 = alloca ptr, align 8
  store ptr %0, ptr %2, align 8
  %3 = load ptr, ptr %2, align 8
  %4 = call noundef i32 @_ZNK5clang6driver6Action7getKindEv(ptr noundef nonnull align 8 dereferenceable(88) %3)
  %5 = icmp eq i32 %4, 3
  ret i1 %5
}

; Function Attrs: mustprogress nounwind uwtable
define linkonce_odr hidden noundef zeroext i1 @_ZN4llvm8isa_implIN5clang6driver16BackendJobActionENS2_9JobActionEvE4doitERKS4_(ptr noundef nonnull align 8 dereferenceable(88) %0) #0 comdat align 2 {
  %2 = alloca ptr, align 8
  store ptr %0, ptr %2, align 8
  %3 = load ptr, ptr %2, align 8
  %4 = call noundef zeroext i1 @_ZN5clang6driver16BackendJobAction7classofEPKNS0_6ActionE(ptr noundef %3)
  ret i1 %4
}

; Function Attrs: mustprogress nounwind uwtable
define linkonce_odr hidden noundef zeroext i1 @_ZN4llvm8isa_implIN5clang6driver16CompileJobActionENS2_9JobActionEvE4doitERKS4_(ptr noundef nonnull align 8 dereferenceable(88) %0) #0 comdat align 2 {
  %2 = alloca ptr, align 8
  store ptr %0, ptr %2, align 8
  %3 = load ptr, ptr %2, align 8
  %4 = call noundef zeroext i1 @_ZN5clang6driver16CompileJobAction7classofEPKNS0_6ActionE(ptr noundef %3)
  ret i1 %4
}

; Function Attrs: mustprogress nounwind uwtable
define linkonce_odr hidden noundef zeroext i1 @_ZN4llvm8isa_implIN5clang6driver19PreprocessJobActionENS2_9JobActionEvE4doitERKS4_(ptr noundef nonnull align 8 dereferenceable(88) %0) #0 comdat align 2 {
  %2 = alloca ptr, align 8
  store ptr %0, ptr %2, align 8
  %3 = load ptr, ptr %2, align 8
  %4 = call noundef zeroext i1 @_ZN5clang6driver19PreprocessJobAction7classofEPKNS0_6ActionE(ptr noundef %3)
  ret i1 %4
}

; Function Attrs: mustprogress nounwind uwtable
define linkonce_odr hidden noundef zeroext i1 @_ZN4llvm11isa_impl_clIN5clang6driver16BackendJobActionEKNS2_9JobActionEE4doitERS5_(ptr noundef nonnull align 8 dereferenceable(88) %0) #0 comdat align 2 {
  %2 = alloca ptr, align 8
  store ptr %0, ptr %2, align 8
  %3 = load ptr, ptr %2, align 8
  %4 = call noundef zeroext i1 @_ZN4llvm8isa_implIN5clang6driver16BackendJobActionENS2_9JobActionEvE4doitERKS4_(ptr noundef nonnull align 8 dereferenceable(88) %3)
  ret i1 %4
}

; Function Attrs: mustprogress nounwind uwtable
define linkonce_odr hidden noundef zeroext i1 @_ZN4llvm11isa_impl_clIN5clang6driver16CompileJobActionEKNS2_9JobActionEE4doitERS5_(ptr noundef nonnull align 8 dereferenceable(88) %0) #0 comdat align 2 {
  %2 = alloca ptr, align 8
  store ptr %0, ptr %2, align 8
  %3 = load ptr, ptr %2, align 8
  %4 = call noundef zeroext i1 @_ZN4llvm8isa_implIN5clang6driver16CompileJobActionENS2_9JobActionEvE4doitERKS4_(ptr noundef nonnull align 8 dereferenceable(88) %3)
  ret i1 %4
}

; Function Attrs: mustprogress nounwind uwtable
define linkonce_odr hidden noundef zeroext i1 @_ZN4llvm11isa_impl_clIN5clang6driver19PreprocessJobActionEKNS2_9JobActionEE4doitERS5_(ptr noundef nonnull align 8 dereferenceable(88) %0) #0 comdat align 2 {
  %2 = alloca ptr, align 8
  store ptr %0, ptr %2, align 8
  %3 = load ptr, ptr %2, align 8
  %4 = call noundef zeroext i1 @_ZN4llvm8isa_implIN5clang6driver19PreprocessJobActionENS2_9JobActionEvE4doitERKS4_(ptr noundef nonnull align 8 dereferenceable(88) %3)
  ret i1 %4
}

; Function Attrs: mustprogress nounwind uwtable
define linkonce_odr hidden noundef zeroext i1 @_ZN4llvm13isa_impl_wrapIN5clang6driver16BackendJobActionEKNS2_9JobActionES5_E4doitERS5_(ptr noundef nonnull align 8 dereferenceable(88) %0) #0 comdat align 2 {
  %2 = alloca ptr, align 8
  store ptr %0, ptr %2, align 8
  %3 = load ptr, ptr %2, align 8
  %4 = call noundef zeroext i1 @_ZN4llvm11isa_impl_clIN5clang6driver16BackendJobActionEKNS2_9JobActionEE4doitERS5_(ptr noundef nonnull align 8 dereferenceable(88) %3)
  ret i1 %4
}

; Function Attrs: mustprogress nounwind uwtable
define linkonce_odr hidden noundef zeroext i1 @_ZN4llvm13isa_impl_wrapIN5clang6driver16CompileJobActionEKNS2_9JobActionES5_E4doitERS5_(ptr noundef nonnull align 8 dereferenceable(88) %0) #0 comdat align 2 {
  %2 = alloca ptr, align 8
  store ptr %0, ptr %2, align 8
  %3 = load ptr, ptr %2, align 8
  %4 = call noundef zeroext i1 @_ZN4llvm11isa_impl_clIN5clang6driver16CompileJobActionEKNS2_9JobActionEE4doitERS5_(ptr noundef nonnull align 8 dereferenceable(88) %3)
  ret i1 %4
}

; Function Attrs: mustprogress nounwind uwtable
define linkonce_odr hidden noundef zeroext i1 @_ZN4llvm13isa_impl_wrapIN5clang6driver19PreprocessJobActionEKNS2_9JobActionES5_E4doitERS5_(ptr noundef nonnull align 8 dereferenceable(88) %0) #0 comdat align 2 {
  %2 = alloca ptr, align 8
  store ptr %0, ptr %2, align 8
  %3 = load ptr, ptr %2, align 8
  %4 = call noundef zeroext i1 @_ZN4llvm11isa_impl_clIN5clang6driver19PreprocessJobActionEKNS2_9JobActionEE4doitERS5_(ptr noundef nonnull align 8 dereferenceable(88) %3)
  ret i1 %4
}

; Function Attrs: mustprogress nounwind uwtable
define linkonce_odr hidden noundef zeroext i1 @_ZN4llvm14CastIsPossibleIN5clang6driver16BackendJobActionEKNS2_9JobActionEvE10isPossibleERS5_(ptr noundef nonnull align 8 dereferenceable(88) %0) #0 comdat align 2 {
  %2 = alloca ptr, align 8
  store ptr %0, ptr %2, align 8
  %3 = load ptr, ptr %2, align 8
  %4 = call noundef zeroext i1 @_ZN4llvm13isa_impl_wrapIN5clang6driver16BackendJobActionEKNS2_9JobActionES5_E4doitERS5_(ptr noundef nonnull align 8 dereferenceable(88) %3)
  ret i1 %4
}

; Function Attrs: mustprogress nounwind uwtable
define linkonce_odr hidden noundef zeroext i1 @_ZN4llvm14CastIsPossibleIN5clang6driver16CompileJobActionEKNS2_9JobActionEvE10isPossibleERS5_(ptr noundef nonnull align 8 dereferenceable(88) %0) #0 comdat align 2 {
  %2 = alloca ptr, align 8
  store ptr %0, ptr %2, align 8
  %3 = load ptr, ptr %2, align 8
  %4 = call noundef zeroext i1 @_ZN4llvm13isa_impl_wrapIN5clang6driver16CompileJobActionEKNS2_9JobActionES5_E4doitERS5_(ptr noundef nonnull align 8 dereferenceable(88) %3)
  ret i1 %4
}

; Function Attrs: mustprogress nounwind uwtable
define linkonce_odr hidden noundef zeroext i1 @_ZN4llvm14CastIsPossibleIN5clang6driver19PreprocessJobActionEKNS2_9JobActionEvE10isPossibleERS5_(ptr noundef nonnull align 8 dereferenceable(88) %0) #0 comdat align 2 {
  %2 = alloca ptr, align 8
  store ptr %0, ptr %2, align 8
  %3 = load ptr, ptr %2, align 8
  %4 = call noundef zeroext i1 @_ZN4llvm13isa_impl_wrapIN5clang6driver19PreprocessJobActionEKNS2_9JobActionES5_E4doitERS5_(ptr noundef nonnull align 8 dereferenceable(88) %3)
  ret i1 %4
}

; Function Attrs: mustprogress nounwind uwtable
define linkonce_odr hidden noundef ptr @_ZNK4llvm25SmallVectorTemplateCommonIPN5clang6driver6ActionEvE5beginEv(ptr noundef nonnull align 8 dereferenceable(16) %0) #0 comdat align 2 {
  %2 = alloca ptr, align 8
  store ptr %0, ptr %2, align 8
  %3 = load ptr, ptr %2, align 8
  %4 = getelementptr inbounds nuw %"class.llvm::SmallVectorBase.4", ptr %3, i32 0, i32 0
  %5 = load ptr, ptr %4, align 8
  ret ptr %5
}

; Function Attrs: mustprogress nounwind uwtable
define linkonce_odr hidden noundef zeroext i1 @_ZN4llvm3isaIN5clang6driver16BackendJobActionENS2_9JobActionEEEbRKT0_(ptr noundef nonnull align 8 dereferenceable(88) %0) #0 comdat {
  %2 = alloca ptr, align 8
  store ptr %0, ptr %2, align 8
  %3 = load ptr, ptr %2, align 8
  %4 = call noundef zeroext i1 @_ZN4llvm14CastIsPossibleIN5clang6driver16BackendJobActionEKNS2_9JobActionEvE10isPossibleERS5_(ptr noundef nonnull align 8 dereferenceable(88) %3)
  ret i1 %4
}

; Function Attrs: mustprogress nounwind uwtable
define linkonce_odr hidden noundef zeroext i1 @_ZN4llvm3isaIN5clang6driver16CompileJobActionENS2_9JobActionEEEbRKT0_(ptr noundef nonnull align 8 dereferenceable(88) %0) #0 comdat {
  %2 = alloca ptr, align 8
  store ptr %0, ptr %2, align 8
  %3 = load ptr, ptr %2, align 8
  %4 = call noundef zeroext i1 @_ZN4llvm14CastIsPossibleIN5clang6driver16CompileJobActionEKNS2_9JobActionEvE10isPossibleERS5_(ptr noundef nonnull align 8 dereferenceable(88) %3)
  ret i1 %4
}

; Function Attrs: mustprogress nounwind uwtable
define linkonce_odr hidden noundef zeroext i1 @_ZN4llvm3isaIN5clang6driver19PreprocessJobActionENS2_9JobActionEEEbRKT0_(ptr noundef nonnull align 8 dereferenceable(88) %0) #0 comdat {
  %2 = alloca ptr, align 8
  store ptr %0, ptr %2, align 8
  %3 = load ptr, ptr %2, align 8
  %4 = call noundef zeroext i1 @_ZN4llvm14CastIsPossibleIN5clang6driver19PreprocessJobActionEKNS2_9JobActionEvE10isPossibleERS5_(ptr noundef nonnull align 8 dereferenceable(88) %3)
  ret i1 %4
}

; Function Attrs: mustprogress nounwind uwtable
define linkonce_odr hidden noundef i32 @_ZNK5clang6driver6Action7getTypeEv(ptr noundef nonnull align 8 dereferenceable(88) %0) #0 comdat align 2 {
  %2 = alloca ptr, align 8
  store ptr %0, ptr %2, align 8
  %3 = load ptr, ptr %2, align 8
  %4 = getelementptr inbounds nuw %"class.clang::driver::Action", ptr %3, i32 0, i32 2
  %5 = load i32, ptr %4, align 4
  ret i32 %5
}

; Function Attrs: mustprogress nounwind uwtable
define linkonce_odr hidden noundef ptr @_ZNK5clang6driver6Action11input_beginEv(ptr noundef nonnull align 8 dereferenceable(88) %0) #0 comdat align 2 {
  %2 = alloca ptr, align 8
  store ptr %0, ptr %2, align 8
  %3 = load ptr, ptr %2, align 8
  %4 = getelementptr inbounds nuw %"class.clang::driver::Action", ptr %3, i32 0, i32 3
  %5 = call noundef ptr @_ZNK4llvm25SmallVectorTemplateCommonIPN5clang6driver6ActionEvE5beginEv(ptr noundef nonnull align 8 dereferenceable(16) %4)
  ret ptr %5
}

; Function Attrs: mustprogress nounwind uwtable
define linkonce_odr hidden noundef i64 @_ZNK5clang6driver6Action4sizeEv(ptr noundef nonnull align 8 dereferenceable(88) %0) #0 comdat align 2 {
  %2 = alloca ptr, align 8
  store ptr %0, ptr %2, align 8
  %3 = load ptr, ptr %2, align 8
  %4 = getelementptr inbounds nuw %"class.clang::driver::Action", ptr %3, i32 0, i32 3
  %5 = call noundef i64 @_ZNK4llvm15SmallVectorBaseIjE4sizeEv(ptr noundef nonnull align 8 dereferenceable(16) %4)
  ret i64 %5
}

; Function Attrs: mustprogress nounwind uwtable
define dso_local noundef zeroext i1 @_ZNK5clang6driver6Driver22ShouldUseFlangCompilerERKNS0_9JobActionE(ptr noundef nonnull align 8 dereferenceable(1192) %0, ptr noundef nonnull align 8 dereferenceable(88) %1) #0 align 2 {
  %3 = alloca i1, align 1
  %4 = alloca ptr, align 8
  %5 = alloca ptr, align 8
  store ptr %0, ptr %4, align 8
  store ptr %1, ptr %5, align 8
  %6 = load ptr, ptr %5, align 8
  %7 = call noundef i64 @_ZNK5clang6driver6Action4sizeEv(ptr noundef nonnull align 8 dereferenceable(88) %6)
  %8 = icmp ne i64 %7, 1
  br i1 %8, label %15, label %9

9:                                                ; preds = %2
  %10 = load ptr, ptr %5, align 8
  %11 = call noundef ptr @_ZNK5clang6driver6Action11input_beginEv(ptr noundef nonnull align 8 dereferenceable(88) %10)
  %12 = load ptr, ptr %11, align 8
  %13 = call noundef i32 @_ZNK5clang6driver6Action7getTypeEv(ptr noundef nonnull align 8 dereferenceable(88) %12)
  %14 = call noundef zeroext i1 @_ZN5clang6driver5types17isAcceptedByFlangENS1_2IDE(i32 noundef %13)
  br i1 %14, label %16, label %15

15:                                               ; preds = %9, %2
  store i1 false, ptr %3, align 1
  br label %27

16:                                               ; preds = %9
  %17 = load ptr, ptr %5, align 8
  %18 = call noundef zeroext i1 @_ZN4llvm3isaIN5clang6driver19PreprocessJobActionENS2_9JobActionEEEbRKT0_(ptr noundef nonnull align 8 dereferenceable(88) %17)
  br i1 %18, label %26, label %19

19:                                               ; preds = %16
  %20 = load ptr, ptr %5, align 8
  %21 = call noundef zeroext i1 @_ZN4llvm3isaIN5clang6driver16CompileJobActionENS2_9JobActionEEEbRKT0_(ptr noundef nonnull align 8 dereferenceable(88) %20)
  br i1 %21, label %26, label %22

22:                                               ; preds = %19
  %23 = load ptr, ptr %5, align 8
  %24 = call noundef zeroext i1 @_ZN4llvm3isaIN5clang6driver16BackendJobActionENS2_9JobActionEEEbRKT0_(ptr noundef nonnull align 8 dereferenceable(88) %23)
  br i1 %24, label %26, label %25

25:                                               ; preds = %22
  store i1 false, ptr %3, align 1
  br label %27

26:                                               ; preds = %22, %19, %16
  store i1 true, ptr %3, align 1
  br label %27

27:                                               ; preds = %26, %25, %15
  %28 = load i1, ptr %3, align 1
  ret i1 %28
}