; Function Attrs: mustprogress nounwind uwtable
define dso_local noundef zeroext i1 @_ZNK5clang6driver6Driver22ShouldUseFlangCompilerERKNS0_9JobActionE(ptr nocapture noundef nonnull readnone align 8 dereferenceable(1192) %0, ptr noundef nonnull align 8 dereferenceable(88) %1) local_unnamed_addr #0 align 2 {
  %3 = getelementptr inbounds nuw i8, ptr %1, i64 16
  %4 = tail call noundef i64 @_ZNK4llvm15SmallVectorBaseIjE4sizeEv(ptr noundef nonnull align 8 dereferenceable(16) %3) #30
  %.not = icmp eq i64 %4, 1
  br i1 %.not, label %5, label %15

5:                                                ; preds = %2
  %6 = load ptr, ptr %3, align 8
  %7 = load ptr, ptr %6, align 8
  %8 = getelementptr inbounds nuw i8, ptr %7, i64 12
  %9 = load i32, ptr %8, align 4
  %10 = tail call noundef zeroext i1 @_ZN5clang6driver5types17isAcceptedByFlangENS1_2IDE(i32 noundef %9) #30
  br i1 %10, label %11, label %15

11:                                               ; preds = %5
  %12 = getelementptr inbounds nuw i8, ptr %1, i64 8
  %13 = load i32, ptr %12, align 8
  %14 = icmp ult i32 %13, 10
  br i1 %14, label %switch.lookup, label %15

switch.lookup:                                    ; preds = %11
  %switch.cast = trunc nuw i32 %13 to i10
  %switch.downshift = lshr i10 -248, %switch.cast
  %switch.masked = trunc i10 %switch.downshift to i1
  br label %15

15:                                               ; preds = %switch.lookup, %11, %2, %5
  %.0 = phi i1 [ false, %5 ], [ false, %2 ], [ false, %11 ], [ %switch.masked, %switch.lookup ]
  ret i1 %.0
}